target datalayout = "e-m:e-p270:32:32-p271:32:32-p272:64:64-i64:64-i128:128-f80:128-n8:16:32:64-S128"
target triple = "x86_64-pc-linux-gnu"

%struct.slurm_conf_t = type { i64, ptr, i16, ptr, ptr, ptr, ptr, ptr, i16, ptr, ptr, ptr, ptr, ptr, ptr, ptr, i16, ptr, ptr, ptr, ptr, i16, ptr, ptr, ptr, i64, ptr, ptr, ptr, ptr, i16, ptr, ptr, i16, i32, ptr, i32, ptr, i32, i32, ptr, ptr, i64, i64, ptr, i16, i16, ptr, i32, i32, ptr, i32, ptr, i32, i16, i16, i16, ptr, i16, i16, ptr, ptr, i32, i16, i16, ptr, i32, i16, ptr, ptr, ptr, ptr, i16, ptr, ptr, ptr, ptr, i32, ptr, ptr, ptr, ptr, i16, i16, ptr, i32, i32, i32, i16, i16, ptr, ptr, i16, ptr, ptr, i32, i32, i32, i32, i32, i64, i32, i32, i16, ptr, ptr, i32, ptr, ptr, ptr, i16, i32, ptr, ptr, i16, ptr, ptr, i32, i16, ptr, ptr, ptr, ptr, i32, i32, i16, i16, i32, ptr, i16, ptr, i32, i32, i32, i32, i32, i32, ptr, i16, ptr, ptr, i32, i16, ptr, i32, i16, i16, ptr, ptr, ptr, i16, ptr, ptr, ptr, ptr, i16, i16, ptr, i16, ptr, i16, ptr, i16, ptr, i16, ptr, ptr, ptr, ptr, i16, ptr, ptr, ptr, i32, ptr, i32, ptr, ptr, i16, ptr, ptr, i32, i16, ptr, ptr, i16, i16, ptr, i16, ptr, ptr, ptr, i32, ptr, i16, i16, ptr, ptr, ptr, ptr, ptr, ptr, ptr, ptr, i16, i32, i16, ptr, ptr, ptr, ptr, i32, ptr, ptr, ptr, i16, ptr, ptr, ptr, i16, ptr, i16, ptr, i16, i16, ptr }
%struct.bb_job = type { ptr, i32, ptr, i32, ptr, i32, i32, ptr, i8, ptr, ptr, i64, ptr, i32, i64, i32, i32, i32, i64, i8, i32 }
%struct.job_record = type { i32, ptr, ptr, ptr, ptr, i16, i32, i32, i32, ptr, i32, ptr, ptr, i16, ptr, double, i64, ptr, ptr, ptr, ptr, ptr, ptr, i32, ptr, i32, i64, i64, i32, i32, ptr, i16, i64, i64, i8, i32, ptr, ptr, ptr, ptr, ptr, ptr, ptr, ptr, i32, ptr, ptr, i32, ptr, i32, ptr, i32, ptr, i32, ptr, ptr, ptr, ptr, ptr, ptr, i32, i16, i64, ptr, ptr, ptr, ptr, %struct.acct_policy_limit_set_t, i16, ptr, ptr, ptr, ptr, ptr, i32, ptr, ptr, ptr, ptr, ptr, i32, i32, ptr, ptr, ptr, i16, ptr, ptr, i8, ptr, ptr, i64, i64, i8, i32, i32, i8, i32, ptr, i32, i64, i32, ptr, ptr, ptr, i8, i16, i64, i32, ptr, ptr, ptr, ptr, ptr, i16, i32, ptr, ptr, ptr, ptr, i32, ptr, i32, i16, i64, ptr, i32, i32, ptr, i64, ptr, ptr, i64, i32, i32, i64, i32, i32, ptr, ptr, ptr, ptr, ptr, ptr, ptr, ptr, ptr, ptr, ptr, ptr, i32, ptr, i16, i16, i16, i16, ptr, i32, i32, i8, i64 }
%struct.acct_policy_limit_set_t = type { i16, i16, ptr }

@.str = private unnamed_addr constant [22 x i8] c"burst_buffer_common.c\00", align 1
@.str.6 = private unnamed_addr constant [17 x i8] c"bb_job_script.%u\00", align 1
@.str.7 = private unnamed_addr constant [28 x i8] c"%s: failed memfd_create: %m\00", align 1
@__func__.bb_handle_job_script = private unnamed_addr constant [21 x i8] c"bb_handle_job_script\00", align 1
@.str.8 = private unnamed_addr constant [16 x i8] c"/proc/%lu/fd/%d\00", align 1
@.str.9 = private unnamed_addr constant [53 x i8] c"%s: %s: %s:%d: %s: safe_write (%zu of %d) failed: %m\00", align 1
@plugin_type = external constant [0 x i8], align 1
@.str.10 = private unnamed_addr constant [56 x i8] c"%s: %s: %s:%d: %s: safe_write (%zu of %d) partial write\00", align 1
@.str.11 = private unnamed_addr constant [54 x i8] c"%s: could not write script file, likely out of memory\00", align 1
@.str.12 = private unnamed_addr constant [25 x i8] c"%s/hash.%d/job.%u/script\00", align 1
@slurm_conf = external global %struct.slurm_conf_t, align 8

; Function Attrs: nounwind uwtable
define dso_local ptr @bb_handle_job_script(ptr noundef %0, ptr noundef %1) #0 {
  %3 = alloca ptr, align 8
  %4 = alloca ptr, align 8
  %5 = alloca ptr, align 8
  %6 = alloca ptr, align 8
  %7 = alloca i32, align 4
  %8 = alloca ptr, align 8
  %9 = alloca ptr, align 8
  %10 = alloca i32, align 4
  %11 = alloca i64, align 8
  %12 = alloca ptr, align 8
  %13 = alloca i32, align 4
  store ptr %0, ptr %4, align 8
  store ptr %1, ptr %5, align 8
  call void @llvm.lifetime.start.p0(i64 8, ptr %6) #9
  store ptr null, ptr %6, align 8
  %14 = load ptr, ptr %5, align 8
  %15 = getelementptr inbounds nuw %struct.bb_job, ptr %14, i32 0, i32 7
  %16 = load ptr, ptr %15, align 8
  %17 = icmp ne ptr %16, null
  br i1 %17, label %18, label %23

18:                                               ; preds = %2
  %19 = load ptr, ptr %5, align 8
  %20 = getelementptr inbounds nuw %struct.bb_job, ptr %19, i32 0, i32 7
  %21 = load ptr, ptr %20, align 8
  %22 = call ptr @xstrdup(ptr noundef %21)
  store ptr %22, ptr %3, align 8
  store i32 1, ptr %7, align 4
  br label %143

23:                                               ; preds = %2
  %24 = load ptr, ptr %5, align 8
  %25 = getelementptr inbounds nuw %struct.bb_job, ptr %24, i32 0, i32 8
  %26 = load i8, ptr %25, align 8, !range !17, !noundef !18
  %27 = trunc i8 %26 to i1
  br i1 %27, label %28, label %133

28:                                               ; preds = %23
  call void @llvm.lifetime.start.p0(i64 8, ptr %8) #9
  store ptr null, ptr %8, align 8
  call void @llvm.lifetime.start.p0(i64 8, ptr %9) #9
  call void @llvm.lifetime.start.p0(i64 4, ptr %10) #9
  %29 = call i32 @getpid() #9
  store i32 %29, ptr %10, align 4
  %30 = load ptr, ptr %4, align 8
  %31 = getelementptr inbounds nuw %struct.job_record, ptr %30, i32 0, i32 53
  %32 = load i32, ptr %31, align 8
  call void (ptr, ptr, ...) @_xstrfmtcat(ptr noundef %8, ptr noundef @.str.6, i32 noundef %32)
  %33 = load ptr, ptr %8, align 8
  %34 = call i32 @memfd_create(ptr noundef %33, i32 noundef 1) #9
  %35 = load ptr, ptr %5, align 8
  %36 = getelementptr inbounds nuw %struct.bb_job, ptr %35, i32 0, i32 6
  store i32 %34, ptr %36, align 4
  %37 = load ptr, ptr %5, align 8
  %38 = getelementptr inbounds nuw %struct.bb_job, ptr %37, i32 0, i32 6
  %39 = load i32, ptr %38, align 4
  %40 = icmp slt i32 %39, 0
  br i1 %40, label %41, label %42

41:                                               ; preds = %28
  call void (ptr, ...) @fatal(ptr noundef @.str.7, ptr noundef @__func__.bb_handle_job_script) #10
  unreachable

42:                                               ; preds = %28
  %43 = load ptr, ptr %5, align 8
  %44 = getelementptr inbounds nuw %struct.bb_job, ptr %43, i32 0, i32 7
  %45 = load i32, ptr %10, align 4
  %46 = sext i32 %45 to i64
  %47 = load ptr, ptr %5, align 8
  %48 = getelementptr inbounds nuw %struct.bb_job, ptr %47, i32 0, i32 6
  %49 = load i32, ptr %48, align 4
  call void (ptr, ptr, ...) @_xstrfmtcat(ptr noundef %44, ptr noundef @.str.8, i64 noundef %46, i32 noundef %49)
  %50 = load ptr, ptr %4, align 8
  %51 = call ptr @_handle_replacement(ptr noundef %50)
  store ptr %51, ptr %9, align 8
  br label %52

52:                                               ; preds = %42
  call void @llvm.lifetime.start.p0(i64 8, ptr %11) #9
  %53 = load ptr, ptr %9, align 8
  %54 = call i64 @strlen(ptr noundef %53) #11
  store i64 %54, ptr %11, align 8
  call void @llvm.lifetime.start.p0(i64 8, ptr %12) #9
  %55 = load ptr, ptr %9, align 8
  store ptr %55, ptr %12, align 8
  call void @llvm.lifetime.start.p0(i64 4, ptr %13) #9
  br label %56

56:                                               ; preds = %120, %77, %52
  %57 = load i64, ptr %11, align 8
  %58 = icmp ugt i64 %57, 0
  br i1 %58, label %59, label %121

59:                                               ; preds = %56
  %60 = load ptr, ptr %5, align 8
  %61 = getelementptr inbounds nuw %struct.bb_job, ptr %60, i32 0, i32 6
  %62 = load i32, ptr %61, align 4
  %63 = load ptr, ptr %12, align 8
  %64 = load i64, ptr %11, align 8
  %65 = call i64 @write(i32 noundef %62, ptr noundef %63, i64 noundef %64)
  %66 = trunc i64 %65 to i32
  store i32 %66, ptr %13, align 4
  %67 = load i32, ptr %13, align 4
  %68 = icmp slt i32 %67, 0
  br i1 %68, label %69, label %93

69:                                               ; preds = %59
  %70 = call ptr @__errno_location() #12
  %71 = load i32, ptr %70, align 4
  %72 = icmp eq i32 %71, 11
  br i1 %72, label %77, label %73

73:                                               ; preds = %69
  %74 = call ptr @__errno_location() #12
  %75 = load i32, ptr %74, align 4
  %76 = icmp eq i32 %75, 4
  br i1 %76, label %77, label %78

77:                                               ; preds = %73, %69
  br label %56, !llvm.loop !27

78:                                               ; preds = %73
  br label %79

79:                                               ; preds = %78
  br label %80

80:                                               ; preds = %79
  %81 = call i32 @get_log_level()
  %82 = icmp sge i32 %81, 5
  br i1 %82, label %83, label %88

83:                                               ; preds = %80
  %84 = load i64, ptr %11, align 8
  %85 = load ptr, ptr %9, align 8
  %86 = call i64 @strlen(ptr noundef %85) #11
  %87 = trunc i64 %86 to i32
  call void (i32, ptr, ...) @log_var(i32 noundef 5, ptr noundef @.str.9, ptr noundef @plugin_type, ptr noundef @__func__.bb_handle_job_script, ptr noundef @.str, i32 noundef 430, ptr noundef @__func__.bb_handle_job_script, i64 noundef %84, i32 noundef %87)
  br label %88

88:                                               ; preds = %83, %80
  br label %89

89:                                               ; preds = %88
  br label %90

90:                                               ; preds = %89
  br label %91

91:                                               ; preds = %90
  br label %92

92:                                               ; preds = %91
  store i32 10, ptr %7, align 4
  br label %122

93:                                               ; preds = %59
  %94 = load i32, ptr %13, align 4
  %95 = load ptr, ptr %12, align 8
  %96 = sext i32 %94 to i64
  %97 = getelementptr inbounds i8, ptr %95, i64 %96
  store ptr %97, ptr %12, align 8
  %98 = load i32, ptr %13, align 4
  %99 = sext i32 %98 to i64
  %100 = load i64, ptr %11, align 8
  %101 = sub i64 %100, %99
  store i64 %101, ptr %11, align 8
  %102 = load i64, ptr %11, align 8
  %103 = icmp ugt i64 %102, 0
  br i1 %103, label %104, label %119

104:                                              ; preds = %93
  br label %105

105:                                              ; preds = %104
  br label %106

106:                                              ; preds = %105
  %107 = call i32 @get_log_level()
  %108 = icmp sge i32 %107, 7
  br i1 %108, label %109, label %114

109:                                              ; preds = %106
  %110 = load i64, ptr %11, align 8
  %111 = load ptr, ptr %9, align 8
  %112 = call i64 @strlen(ptr noundef %111) #11
  %113 = trunc i64 %112 to i32
  call void (i32, ptr, ...) @log_var(i32 noundef 7, ptr noundef @.str.10, ptr noundef @plugin_type, ptr noundef @__func__.bb_handle_job_script, ptr noundef @.str, i32 noundef 430, ptr noundef @__func__.bb_handle_job_script, i64 noundef %110, i32 noundef %113)
  br label %114

114:                                              ; preds = %109, %106
  br label %115

115:                                              ; preds = %114
  br label %116

116:                                              ; preds = %115
  br label %117

117:                                              ; preds = %116
  br label %118

118:                                              ; preds = %117
  br label %119

119:                                              ; preds = %118, %93
  br label %120

120:                                              ; preds = %119
  br label %56, !llvm.loop !27

121:                                              ; preds = %56
  store i32 0, ptr %7, align 4
  br label %122

122:                                              ; preds = %92, %121
  call void @llvm.lifetime.end.p0(i64 4, ptr %13) #9
  call void @llvm.lifetime.end.p0(i64 8, ptr %12) #9
  call void @llvm.lifetime.end.p0(i64 8, ptr %11) #9
  %123 = load i32, ptr %7, align 4
  switch i32 %123, label %132 [
    i32 0, label %124
    i32 10, label %131
  ]

124:                                              ; preds = %122
  br label %125

125:                                              ; preds = %124
  br label %126

126:                                              ; preds = %125
  call void @slurm_xfree(ptr noundef %9)
  %127 = load ptr, ptr %5, align 8
  %128 = getelementptr inbounds nuw %struct.bb_job, ptr %127, i32 0, i32 7
  %129 = load ptr, ptr %128, align 8
  %130 = call ptr @xstrdup(ptr noundef %129)
  store ptr %130, ptr %3, align 8
  store i32 1, ptr %7, align 4
  br label %132

131:                                              ; preds = %122
  call void @slurm_xfree(ptr noundef %9)
  call void (ptr, ...) @fatal(ptr noundef @.str.11, ptr noundef @__func__.bb_handle_job_script) #10
  unreachable

132:                                              ; preds = %126, %122
  call void @llvm.lifetime.end.p0(i64 4, ptr %10) #9
  call void @llvm.lifetime.end.p0(i64 8, ptr %9) #9
  call void @llvm.lifetime.end.p0(i64 8, ptr %8) #9
  br label %143

133:                                              ; preds = %23
  %134 = load ptr, ptr getelementptr inbounds nuw (%struct.slurm_conf_t, ptr @slurm_conf, i32 0, i32 199), align 8
  %135 = load ptr, ptr %4, align 8
  %136 = getelementptr inbounds nuw %struct.job_record, ptr %135, i32 0, i32 53
  %137 = load i32, ptr %136, align 8
  %138 = urem i32 %137, 10
  %139 = load ptr, ptr %4, align 8
  %140 = getelementptr inbounds nuw %struct.job_record, ptr %139, i32 0, i32 53
  %141 = load i32, ptr %140, align 8
  call void (ptr, ptr, ...) @_xstrfmtcat(ptr noundef %6, ptr noundef @.str.12, ptr noundef %134, i32 noundef %138, i32 noundef %141)
  %142 = load ptr, ptr %6, align 8
  store ptr %142, ptr %3, align 8
  store i32 1, ptr %7, align 4
  br label %143

143:                                              ; preds = %133, %132, %18
  call void @llvm.lifetime.end.p0(i64 8, ptr %6) #9
  %144 = load ptr, ptr %3, align 8
  ret ptr %144
}