; Function Attrs: nounwind uwtable
define dso_local ptr @bb_handle_job_script(ptr noundef captures(none) %0, ptr noundef %1) local_unnamed_addr #0 {
  %3 = alloca ptr, align 8
  %4 = alloca ptr, align 8
  %5 = alloca ptr, align 8
  call void @llvm.lifetime.start.p0(i64 8, ptr nonnull %3) #17
  store ptr null, ptr %3, align 8
  %6 = getelementptr inbounds nuw i8, ptr %1, i64 48
  %7 = load ptr, ptr %6, align 8
  %.not = icmp eq ptr %7, null
  br i1 %.not, label %10, label %8

8:                                                ; preds = %2
  %9 = tail call ptr @xstrdup(ptr noundef nonnull %7) #17
  br label %62

10:                                               ; preds = %2
  %11 = getelementptr inbounds nuw i8, ptr %1, i64 56
  %12 = load i8, ptr %11, align 8, !range !25, !noundef !26
  %13 = trunc nuw i8 %12 to i1
  br i1 %13, label %14, label %56

14:                                               ; preds = %10
  call void @llvm.lifetime.start.p0(i64 8, ptr nonnull %4) #17
  store ptr null, ptr %4, align 8
  call void @llvm.lifetime.start.p0(i64 8, ptr nonnull %5) #17
  %15 = tail call i32 @getpid() #17
  %16 = getelementptr inbounds nuw i8, ptr %0, i64 392
  %17 = load i32, ptr %16, align 8
  call void (ptr, ptr, ...) @_xstrfmtcat(ptr noundef nonnull %4, ptr noundef nonnull @.str.6, i32 noundef %17) #17
  %18 = load ptr, ptr %4, align 8
  %19 = call i32 @memfd_create(ptr noundef %18, i32 noundef 1) #17
  %20 = getelementptr inbounds nuw i8, ptr %1, i64 44
  store i32 %19, ptr %20, align 4
  %21 = icmp slt i32 %19, 0
  br i1 %21, label %22, label %23

22:                                               ; preds = %14
  call void (ptr, ...) @fatal(ptr noundef nonnull @.str.7, ptr noundef nonnull @__func__.bb_handle_job_script) #18
  unreachable

23:                                               ; preds = %14
  %24 = sext i32 %15 to i64
  call void (ptr, ptr, ...) @_xstrfmtcat(ptr noundef nonnull %6, ptr noundef nonnull @.str.8, i64 noundef %24, i32 noundef %19) #17
  %25 = call ptr @_handle_replacement(ptr noundef nonnull %0)
  store ptr %25, ptr %5, align 8
  %26 = call i64 @strlen(ptr noundef nonnull dereferenceable(1) %25) #19
  %.not3448 = icmp eq i64 %26, 0
  br i1 %.not3448, label %.outer._crit_edge, label %.lr.ph.split

.lr.ph.split:                                     ; preds = %23, %.lr.ph.split.backedge
  %.026.ph51 = phi ptr [ %44, %.lr.ph.split.backedge ], [ %25, %23 ]
  %.027.ph49 = phi i64 [ %45, %.lr.ph.split.backedge ], [ %26, %23 ]
  %27 = load i32, ptr %20, align 4
  %28 = call i64 @write(i32 noundef %27, ptr noundef %.026.ph51, i64 noundef %.027.ph49) #17
  %29 = and i64 %28, 2147483648
  %.not3546 = icmp eq i64 %29, 0
  br i1 %.not3546, label %.split.us, label %.lr.ph47

.lr.ph47:                                         ; preds = %.lr.ph.split
  %30 = tail call ptr @__errno_location() #20
  br label %31

31:                                               ; preds = %.lr.ph47, %33
  %32 = load i32, ptr %30, align 4
  switch i32 %32, label %.split41.us [
    i32 11, label %33
    i32 4, label %33
  ]

33:                                               ; preds = %31, %31
  %34 = load i32, ptr %20, align 4
  %35 = call i64 @write(i32 noundef %34, ptr noundef %.026.ph51, i64 noundef %.027.ph49) #17
  %36 = and i64 %35, 2147483648
  %.not35 = icmp eq i64 %36, 0
  br i1 %.not35, label %.split.us, label %31

.split41.us:                                      ; preds = %31
  %37 = call i32 @get_log_level() #17
  %38 = icmp sgt i32 %37, 4
  br i1 %38, label %39, label %53

39:                                               ; preds = %.split41.us
  %40 = load ptr, ptr %5, align 8
  %41 = call i64 @strlen(ptr noundef nonnull dereferenceable(1) %40) #19
  %42 = trunc i64 %41 to i32
  call void (i32, ptr, ...) @log_var(i32 noundef 5, ptr noundef nonnull @.str.9, ptr noundef nonnull @plugin_type, ptr noundef nonnull @__func__.bb_handle_job_script, ptr noundef nonnull @.str, i32 noundef 430, ptr noundef nonnull @__func__.bb_handle_job_script, i64 noundef %.027.ph49, i32 noundef %42) #17
  br label %53

.split.us:                                        ; preds = %33, %.lr.ph.split
  %.us-phi = phi i64 [ %28, %.lr.ph.split ], [ %35, %33 ]
  %43 = and i64 %.us-phi, 2147483647
  %44 = getelementptr inbounds nuw i8, ptr %.026.ph51, i64 %43
  %45 = sub i64 %.027.ph49, %43
  %.not36 = icmp eq i64 %45, 0
  br i1 %.not36, label %.outer._crit_edge, label %46

46:                                               ; preds = %.split.us
  %47 = call i32 @get_log_level() #17
  %48 = icmp sgt i32 %47, 6
  br i1 %48, label %49, label %.lr.ph.split.backedge

49:                                               ; preds = %46
  %50 = load ptr, ptr %5, align 8
  %51 = call i64 @strlen(ptr noundef nonnull dereferenceable(1) %50) #19
  %52 = trunc i64 %51 to i32
  call void (i32, ptr, ...) @log_var(i32 noundef 7, ptr noundef nonnull @.str.10, ptr noundef nonnull @plugin_type, ptr noundef nonnull @__func__.bb_handle_job_script, ptr noundef nonnull @.str, i32 noundef 430, ptr noundef nonnull @__func__.bb_handle_job_script, i64 noundef %45, i32 noundef %52) #17
  br label %.lr.ph.split.backedge

.lr.ph.split.backedge:                            ; preds = %49, %46
  br label %.lr.ph.split, !llvm.loop !27

53:                                               ; preds = %39, %.split41.us
  call void @slurm_xfree(ptr noundef nonnull %5) #17
  call void (ptr, ...) @fatal(ptr noundef nonnull @.str.11, ptr noundef nonnull @__func__.bb_handle_job_script) #18
  unreachable

.outer._crit_edge:                                ; preds = %.split.us, %23
  call void @slurm_xfree(ptr noundef nonnull %5) #17
  %54 = load ptr, ptr %6, align 8
  %55 = call ptr @xstrdup(ptr noundef %54) #17
  call void @llvm.lifetime.end.p0(i64 8, ptr nonnull %5) #17
  call void @llvm.lifetime.end.p0(i64 8, ptr nonnull %4) #17
  br label %62

56:                                               ; preds = %10
  %57 = load ptr, ptr getelementptr inbounds nuw (i8, ptr @slurm_conf, i64 1336), align 8
  %58 = getelementptr inbounds nuw i8, ptr %0, i64 392
  %59 = load i32, ptr %58, align 8
  %60 = urem i32 %59, 10
  call void (ptr, ptr, ...) @_xstrfmtcat(ptr noundef nonnull %3, ptr noundef nonnull @.str.12, ptr noundef %57, i32 noundef %60, i32 noundef %59) #17
  %61 = load ptr, ptr %3, align 8
  br label %62

62:                                               ; preds = %56, %.outer._crit_edge, %8
  %.0 = phi ptr [ %9, %8 ], [ %55, %.outer._crit_edge ], [ %61, %56 ]
  call void @llvm.lifetime.end.p0(i64 8, ptr nonnull %3) #17
  ret ptr %.0
}